; Function Attrs: mustprogress nofree norecurse nosync nounwind willreturn memory(argmem: readwrite) uwtable
define void @_ZN9grpc_core16HttpClientFilterC2ENS_18HttpSchemeMetadata9ValueTypeENS_5SliceEb(ptr noundef nonnull writeonly align 8 captures(none) dereferenceable(48) initializes((0, 10), (16, 48)) %0, i8 noundef zeroext %1, ptr noundef captures(none) %2, i1 noundef zeroext %3) unnamed_addr #6 align 2 personality ptr @__gxx_personality_v0 {
  %5 = alloca %struct.grpc_slice, align 8
  %6 = zext i1 %3 to i8
  store ptr getelementptr inbounds nuw inrange(-16, 48) (i8, ptr @_ZTVN9grpc_core16HttpClientFilterE, i64 16), ptr %0, align 8, !tbaa !66
  %7 = getelementptr inbounds nuw i8, ptr %0, i64 8
  store i8 %1, ptr %7, align 8, !tbaa !68
  %8 = getelementptr inbounds nuw i8, ptr %0, i64 9
  store i8 %6, ptr %8, align 1, !tbaa !3
  %9 = getelementptr inbounds nuw i8, ptr %0, i64 16
  call void @llvm.lifetime.start.p0(i64 32, ptr nonnull %5)
  call void @llvm.memcpy.p0.p0.i64(ptr noundef nonnull align 8 dereferenceable(32) %5, ptr noundef nonnull align 8 dereferenceable(32) %2, i64 32, i1 false), !tbaa.struct !60
  tail call void @llvm.memset.p0.i64(ptr noundef nonnull align 8 dereferenceable(32) %2, i8 0, i64 32, i1 false), !noalias !69
  call void @llvm.memcpy.p0.p0.i64(ptr noundef nonnull align 8 dereferenceable(32) %9, ptr noundef nonnull align 8 dereferenceable(32) %5, i64 32, i1 false), !tbaa.struct !60
  call void @llvm.lifetime.end.p0(i64 32, ptr nonnull %5)
  ret void
}